target datalayout = "e-m:e-p270:32:32-p271:32:32-p272:64:64-i64:64-i128:128-f80:128-n8:16:32:64-S128"
target triple = "x86_64-pc-linux-gnu"

%"struct.(anonymous namespace)::VizConfig" = type { i32, i32, i32, i32, %"class.std::vector.3" }
%"class.std::vector.3" = type { %"struct.std::_Vector_base.4" }
%"struct.std::_Vector_base.4" = type { %"struct.std::_Vector_base<std::pair<(anonymous namespace)::VizConfig::group_type_t, Yosys::RTLIL::Selection>, std::allocator<std::pair<(anonymous namespace)::VizConfig::group_type_t, Yosys::RTLIL::Selection>>>::_Vector_impl" }
%"struct.std::_Vector_base<std::pair<(anonymous namespace)::VizConfig::group_type_t, Yosys::RTLIL::Selection>, std::allocator<std::pair<(anonymous namespace)::VizConfig::group_type_t, Yosys::RTLIL::Selection>>>::_Vector_impl" = type { %"struct.std::_Vector_base<std::pair<(anonymous namespace)::VizConfig::group_type_t, Yosys::RTLIL::Selection>, std::allocator<std::pair<(anonymous namespace)::VizConfig::group_type_t, Yosys::RTLIL::Selection>>>::_Vector_impl_data" }
%"struct.std::_Vector_base<std::pair<(anonymous namespace)::VizConfig::group_type_t, Yosys::RTLIL::Selection>, std::allocator<std::pair<(anonymous namespace)::VizConfig::group_type_t, Yosys::RTLIL::Selection>>>::_Vector_impl_data" = type { ptr, ptr, ptr }

@.str.4 = private unnamed_addr constant [2 x i8] c"\0A\00", align 1
@.str.5 = private unnamed_addr constant [31 x i8] c"    viz [options] [selection]\0A\00", align 1
@.str.6 = private unnamed_addr constant [77 x i8] c"Create a graphviz DOT file for the selected part of the design, showing the\0A\00", align 1
@.str.7 = private unnamed_addr constant [72 x i8] c"relationships between the selected wires, and compile it to a graphics\0A\00", align 1
@.str.8 = private unnamed_addr constant [35 x i8] c"file (usually SVG or PostScript).\0A\00", align 1
@.str.9 = private unnamed_addr constant [22 x i8] c"    -viewer <viewer>\0A\00", align 1
@.str.10 = private unnamed_addr constant [72 x i8] c"        Run the specified command with the graphics file as parameter.\0A\00", align 1
@.str.11 = private unnamed_addr constant [63 x i8] c"        On Windows, this pauses yosys until the viewer exits.\0A\00", align 1
@.str.12 = private unnamed_addr constant [22 x i8] c"    -format <format>\0A\00", align 1
@.str.13 = private unnamed_addr constant [77 x i8] c"        Generate a graphics file in the specified format. Use 'dot' to just\0A\00", align 1
@.str.14 = private unnamed_addr constant [79 x i8] c"        generate a .dot file, or other <format> strings such as 'svg' or 'ps'\0A\00", align 1
@.str.15 = private unnamed_addr constant [76 x i8] c"        to generate files in other formats (this calls the 'dot' command).\0A\00", align 1
@.str.16 = private unnamed_addr constant [22 x i8] c"    -prefix <prefix>\0A\00", align 1
@.str.17 = private unnamed_addr constant [55 x i8] c"        generate <prefix>.* instead of ~/.yosys_viz.*\0A\00", align 1
@.str.18 = private unnamed_addr constant [12 x i8] c"    -pause\0A\00", align 1
@.str.19 = private unnamed_addr constant [62 x i8] c"        wait for the user to press enter to before returning\0A\00", align 1
@.str.20 = private unnamed_addr constant [11 x i8] c"    -nobg\0A\00", align 1
@.str.21 = private unnamed_addr constant [76 x i8] c"        don't run viewer in the background, IE wait for the viewer tool to\0A\00", align 1
@.str.22 = private unnamed_addr constant [31 x i8] c"        exit before returning\0A\00", align 1
@.str.23 = private unnamed_addr constant [18 x i8] c"    -set-vg-attr\0A\00", align 1
@.str.24 = private unnamed_addr constant [68 x i8] c"        set their group index as 'vg' attribute on cells and wires\0A\00", align 1
@.str.25 = private unnamed_addr constant [20 x i8] c"    -g <selection>\0A\00", align 1
@.str.26 = private unnamed_addr constant [78 x i8] c"        manually define a group of terminal signals. this group is not being\0A\00", align 1
@.str.27 = private unnamed_addr constant [44 x i8] c"        merged with other terminal groups.\0A\00", align 1
@.str.28 = private unnamed_addr constant [20 x i8] c"    -u <selection>\0A\00", align 1
@.str.29 = private unnamed_addr constant [72 x i8] c"        manually define a unique group for each wire in the selection.\0A\00", align 1
@.str.30 = private unnamed_addr constant [20 x i8] c"    -x <selection>\0A\00", align 1
@.str.31 = private unnamed_addr constant [72 x i8] c"        manually exclude wires from being considered. (usually this is\0A\00", align 1
@.str.32 = private unnamed_addr constant [50 x i8] c"        used for global signals, such as reset.)\0A\00", align 1
@.str.33 = private unnamed_addr constant [20 x i8] c"    -s <selection>\0A\00", align 1
@.str.34 = private unnamed_addr constant [73 x i8] c"        like -g, but mark group as 'special', changing the algorithm to\0A\00", align 1
@.str.35 = private unnamed_addr constant [75 x i8] c"        preserve as much info about this groups connectivity as possible.\0A\00", align 1
@.str.36 = private unnamed_addr constant [27 x i8] c"    -G <selection_expr> .\0A\00", align 1
@.str.37 = private unnamed_addr constant [27 x i8] c"    -U <selection_expr> .\0A\00", align 1
@.str.38 = private unnamed_addr constant [27 x i8] c"    -X <selection_expr> .\0A\00", align 1
@.str.39 = private unnamed_addr constant [27 x i8] c"    -S <selection_expr> .\0A\00", align 1
@.str.40 = private unnamed_addr constant [80 x i8] c"        like -u, -g, -x, and -s, but parse all arguments up to a terminating .\0A\00", align 1
@.str.41 = private unnamed_addr constant [72 x i8] c"        as a single select expression. (see 'help select' for details)\0A\00", align 1
@.str.42 = private unnamed_addr constant [44 x i8] c"    -0, -1, -2, -3, -4, -5, -6, -7, -8, -9\0A\00", align 1
@.str.43 = private unnamed_addr constant [76 x i8] c"        select effort level. each level corresponds to an incresingly more\0A\00", align 1
@.str.44 = private unnamed_addr constant [78 x i8] c"        aggressive sequence of strategies for merging nodes of the data flow\0A\00", align 1
@.str.45 = private unnamed_addr constant [30 x i8] c"        graph. (default: %d)\0A\00", align 1
@.str.46 = private unnamed_addr constant [80 x i8] c"When no <format> is specified, 'dot' is used. When no <format> and <viewer> is\0A\00", align 1
@.str.47 = private unnamed_addr constant [74 x i8] c"specified, 'xdot' is used to display the schematic (POSIX systems only).\0A\00", align 1
@.str.48 = private unnamed_addr constant [80 x i8] c"The generated output files are '~/.yosys_viz.dot' and '~/.yosys_viz.<format>',\0A\00", align 1
@.str.49 = private unnamed_addr constant [60 x i8] c"unless another prefix is specified using -prefix <prefix>.\0A\00", align 1
@.str.50 = private unnamed_addr constant [76 x i8] c"Yosys on Windows and YosysJS use different defaults: The output is written\0A\00", align 1
@.str.51 = private unnamed_addr constant [77 x i8] c"to 'show.dot' in the current directory and new viewer is launched each time\0A\00", align 1
@.str.52 = private unnamed_addr constant [33 x i8] c"the 'show' command is executed.\0A\00", align 1

; Function Attrs: mustprogress nounwind uwtable
define internal void @_ZNSt15__new_allocatorISt4pairIN12_GLOBAL__N_19VizConfig12group_type_tEN5Yosys5RTLIL9SelectionEEEC2Ev(ptr noundef nonnull align 1 dereferenceable(1) %0) unnamed_addr #6 align 2 {
  %2 = alloca ptr, align 8
  store ptr %0, ptr %2, align 8, !tbaa !87
  ret void
}

; Function Attrs: mustprogress nounwind uwtable
define internal void @_ZNSt12_Vector_baseISt4pairIN12_GLOBAL__N_19VizConfig12group_type_tEN5Yosys5RTLIL9SelectionEESaIS7_EE17_Vector_impl_dataC2Ev(ptr noundef nonnull align 8 dereferenceable(24) %0) unnamed_addr #6 align 2 {
  %2 = alloca ptr, align 8
  store ptr %0, ptr %2, align 8, !tbaa !82
  %3 = load ptr, ptr %2, align 8
  %4 = getelementptr inbounds nuw %"struct.std::_Vector_base<std::pair<(anonymous namespace)::VizConfig::group_type_t, Yosys::RTLIL::Selection>, std::allocator<std::pair<(anonymous namespace)::VizConfig::group_type_t, Yosys::RTLIL::Selection>>>::_Vector_impl_data", ptr %3, i32 0, i32 0
  store ptr null, ptr %4, align 8, !tbaa !84
  %5 = getelementptr inbounds nuw %"struct.std::_Vector_base<std::pair<(anonymous namespace)::VizConfig::group_type_t, Yosys::RTLIL::Selection>, std::allocator<std::pair<(anonymous namespace)::VizConfig::group_type_t, Yosys::RTLIL::Selection>>>::_Vector_impl_data", ptr %3, i32 0, i32 1
  store ptr null, ptr %5, align 8, !tbaa !85
  %6 = getelementptr inbounds nuw %"struct.std::_Vector_base<std::pair<(anonymous namespace)::VizConfig::group_type_t, Yosys::RTLIL::Selection>, std::allocator<std::pair<(anonymous namespace)::VizConfig::group_type_t, Yosys::RTLIL::Selection>>>::_Vector_impl_data", ptr %3, i32 0, i32 2
  store ptr null, ptr %6, align 8, !tbaa !86
  ret void
}

; Function Attrs: mustprogress nounwind uwtable
define internal void @_ZNSaISt4pairIN12_GLOBAL__N_19VizConfig12group_type_tEN5Yosys5RTLIL9SelectionEEEC2Ev(ptr noundef nonnull align 1 dereferenceable(1) %0) unnamed_addr #6 align 2 {
  %2 = alloca ptr, align 8
  store ptr %0, ptr %2, align 8, !tbaa !80
  %3 = load ptr, ptr %2, align 8
  call void @_ZNSt15__new_allocatorISt4pairIN12_GLOBAL__N_19VizConfig12group_type_tEN5Yosys5RTLIL9SelectionEEEC2Ev(ptr noundef nonnull align 1 dereferenceable(1) %3) #3
  ret void
}

; Function Attrs: mustprogress nounwind uwtable
define internal void @_ZNSt12_Vector_baseISt4pairIN12_GLOBAL__N_19VizConfig12group_type_tEN5Yosys5RTLIL9SelectionEESaIS7_EE12_Vector_implC2Ev(ptr noundef nonnull align 8 dereferenceable(24) %0) unnamed_addr #6 align 2 {
  %2 = alloca ptr, align 8
  store ptr %0, ptr %2, align 8, !tbaa !78
  %3 = load ptr, ptr %2, align 8
  call void @_ZNSaISt4pairIN12_GLOBAL__N_19VizConfig12group_type_tEN5Yosys5RTLIL9SelectionEEEC2Ev(ptr noundef nonnull align 1 dereferenceable(1) %3) #3
  call void @_ZNSt12_Vector_baseISt4pairIN12_GLOBAL__N_19VizConfig12group_type_tEN5Yosys5RTLIL9SelectionEESaIS7_EE17_Vector_impl_dataC2Ev(ptr noundef nonnull align 8 dereferenceable(24) %3) #3
  ret void
}

; Function Attrs: mustprogress nounwind uwtable
define internal void @_ZNSt12_Vector_baseISt4pairIN12_GLOBAL__N_19VizConfig12group_type_tEN5Yosys5RTLIL9SelectionEESaIS7_EEC2Ev(ptr noundef nonnull align 8 dereferenceable(24) %0) unnamed_addr #6 align 2 {
  %2 = alloca ptr, align 8
  store ptr %0, ptr %2, align 8, !tbaa !76
  %3 = load ptr, ptr %2, align 8
  %4 = getelementptr inbounds nuw %"struct.std::_Vector_base.4", ptr %3, i32 0, i32 0
  call void @_ZNSt12_Vector_baseISt4pairIN12_GLOBAL__N_19VizConfig12group_type_tEN5Yosys5RTLIL9SelectionEESaIS7_EE12_Vector_implC2Ev(ptr noundef nonnull align 8 dereferenceable(24) %4) #3
  ret void
}

; Function Attrs: mustprogress nounwind uwtable
define internal void @_ZNSt6vectorISt4pairIN12_GLOBAL__N_19VizConfig12group_type_tEN5Yosys5RTLIL9SelectionEESaIS7_EEC2Ev(ptr noundef nonnull align 8 dereferenceable(24) %0) unnamed_addr #6 align 2 {
  %2 = alloca ptr, align 8
  store ptr %0, ptr %2, align 8, !tbaa !74
  %3 = load ptr, ptr %2, align 8
  call void @_ZNSt12_Vector_baseISt4pairIN12_GLOBAL__N_19VizConfig12group_type_tEN5Yosys5RTLIL9SelectionEESaIS7_EEC2Ev(ptr noundef nonnull align 8 dereferenceable(24) %3) #3
  ret void
}

; Function Attrs: inlinehint mustprogress nounwind uwtable
define internal void @_ZN12_GLOBAL__N_19VizConfigC2Ev(ptr noundef nonnull align 8 dereferenceable(40) %0) unnamed_addr #7 align 2 {
  %2 = alloca ptr, align 8
  store ptr %0, ptr %2, align 8, !tbaa !69
  %3 = load ptr, ptr %2, align 8
  %4 = getelementptr inbounds nuw %"struct.(anonymous namespace)::VizConfig", ptr %3, i32 0, i32 0
  store i32 9, ptr %4, align 8, !tbaa !21
  %5 = getelementptr inbounds nuw %"struct.(anonymous namespace)::VizConfig", ptr %3, i32 0, i32 1
  store i32 30, ptr %5, align 4, !tbaa !71
  %6 = getelementptr inbounds nuw %"struct.(anonymous namespace)::VizConfig", ptr %3, i32 0, i32 2
  store i32 10, ptr %6, align 8, !tbaa !72
  %7 = getelementptr inbounds nuw %"struct.(anonymous namespace)::VizConfig", ptr %3, i32 0, i32 3
  store i32 10, ptr %7, align 4, !tbaa !73
  %8 = getelementptr inbounds nuw %"struct.(anonymous namespace)::VizConfig", ptr %3, i32 0, i32 4
  call void @_ZNSt6vectorISt4pairIN12_GLOBAL__N_19VizConfig12group_type_tEN5Yosys5RTLIL9SelectionEESaIS7_EEC2Ev(ptr noundef nonnull align 8 dereferenceable(24) %8) #3
  ret void
}

; Function Attrs: mustprogress uwtable
define internal void @_ZN12_GLOBAL__N_17VizPass4helpEv(ptr noundef nonnull align 8 dereferenceable(104) %0) unnamed_addr #4 align 2 personality ptr @__gxx_personality_v0 {
  %2 = alloca ptr, align 8
  %3 = alloca %"struct.(anonymous namespace)::VizConfig", align 8
  %4 = alloca ptr, align 8
  %5 = alloca i32, align 4
  store ptr %0, ptr %2, align 8, !tbaa !6
  call void (ptr, ...) @_ZN5Yosys3logEPKcz(ptr noundef @.str.4)
  call void (ptr, ...) @_ZN5Yosys3logEPKcz(ptr noundef @.str.5)
  call void (ptr, ...) @_ZN5Yosys3logEPKcz(ptr noundef @.str.4)
  call void (ptr, ...) @_ZN5Yosys3logEPKcz(ptr noundef @.str.6)
  call void (ptr, ...) @_ZN5Yosys3logEPKcz(ptr noundef @.str.7)
  call void (ptr, ...) @_ZN5Yosys3logEPKcz(ptr noundef @.str.8)
  call void (ptr, ...) @_ZN5Yosys3logEPKcz(ptr noundef @.str.4)
  call void (ptr, ...) @_ZN5Yosys3logEPKcz(ptr noundef @.str.9)
  call void (ptr, ...) @_ZN5Yosys3logEPKcz(ptr noundef @.str.10)
  call void (ptr, ...) @_ZN5Yosys3logEPKcz(ptr noundef @.str.11)
  call void (ptr, ...) @_ZN5Yosys3logEPKcz(ptr noundef @.str.4)
  call void (ptr, ...) @_ZN5Yosys3logEPKcz(ptr noundef @.str.12)
  call void (ptr, ...) @_ZN5Yosys3logEPKcz(ptr noundef @.str.13)
  call void (ptr, ...) @_ZN5Yosys3logEPKcz(ptr noundef @.str.14)
  call void (ptr, ...) @_ZN5Yosys3logEPKcz(ptr noundef @.str.15)
  call void (ptr, ...) @_ZN5Yosys3logEPKcz(ptr noundef @.str.4)
  call void (ptr, ...) @_ZN5Yosys3logEPKcz(ptr noundef @.str.16)
  call void (ptr, ...) @_ZN5Yosys3logEPKcz(ptr noundef @.str.17)
  call void (ptr, ...) @_ZN5Yosys3logEPKcz(ptr noundef @.str.4)
  call void (ptr, ...) @_ZN5Yosys3logEPKcz(ptr noundef @.str.18)
  call void (ptr, ...) @_ZN5Yosys3logEPKcz(ptr noundef @.str.19)
  call void (ptr, ...) @_ZN5Yosys3logEPKcz(ptr noundef @.str.4)
  call void (ptr, ...) @_ZN5Yosys3logEPKcz(ptr noundef @.str.20)
  call void (ptr, ...) @_ZN5Yosys3logEPKcz(ptr noundef @.str.21)
  call void (ptr, ...) @_ZN5Yosys3logEPKcz(ptr noundef @.str.22)
  call void (ptr, ...) @_ZN5Yosys3logEPKcz(ptr noundef @.str.4)
  call void (ptr, ...) @_ZN5Yosys3logEPKcz(ptr noundef @.str.23)
  call void (ptr, ...) @_ZN5Yosys3logEPKcz(ptr noundef @.str.24)
  call void (ptr, ...) @_ZN5Yosys3logEPKcz(ptr noundef @.str.4)
  call void (ptr, ...) @_ZN5Yosys3logEPKcz(ptr noundef @.str.25)
  call void (ptr, ...) @_ZN5Yosys3logEPKcz(ptr noundef @.str.26)
  call void (ptr, ...) @_ZN5Yosys3logEPKcz(ptr noundef @.str.27)
  call void (ptr, ...) @_ZN5Yosys3logEPKcz(ptr noundef @.str.4)
  call void (ptr, ...) @_ZN5Yosys3logEPKcz(ptr noundef @.str.28)
  call void (ptr, ...) @_ZN5Yosys3logEPKcz(ptr noundef @.str.29)
  call void (ptr, ...) @_ZN5Yosys3logEPKcz(ptr noundef @.str.4)
  call void (ptr, ...) @_ZN5Yosys3logEPKcz(ptr noundef @.str.30)
  call void (ptr, ...) @_ZN5Yosys3logEPKcz(ptr noundef @.str.31)
  call void (ptr, ...) @_ZN5Yosys3logEPKcz(ptr noundef @.str.32)
  call void (ptr, ...) @_ZN5Yosys3logEPKcz(ptr noundef @.str.4)
  call void (ptr, ...) @_ZN5Yosys3logEPKcz(ptr noundef @.str.33)
  call void (ptr, ...) @_ZN5Yosys3logEPKcz(ptr noundef @.str.34)
  call void (ptr, ...) @_ZN5Yosys3logEPKcz(ptr noundef @.str.35)
  call void (ptr, ...) @_ZN5Yosys3logEPKcz(ptr noundef @.str.4)
  call void (ptr, ...) @_ZN5Yosys3logEPKcz(ptr noundef @.str.36)
  call void (ptr, ...) @_ZN5Yosys3logEPKcz(ptr noundef @.str.37)
  call void (ptr, ...) @_ZN5Yosys3logEPKcz(ptr noundef @.str.38)
  call void (ptr, ...) @_ZN5Yosys3logEPKcz(ptr noundef @.str.39)
  call void (ptr, ...) @_ZN5Yosys3logEPKcz(ptr noundef @.str.40)
  call void (ptr, ...) @_ZN5Yosys3logEPKcz(ptr noundef @.str.41)
  call void (ptr, ...) @_ZN5Yosys3logEPKcz(ptr noundef @.str.4)
  call void (ptr, ...) @_ZN5Yosys3logEPKcz(ptr noundef @.str.42)
  call void (ptr, ...) @_ZN5Yosys3logEPKcz(ptr noundef @.str.43)
  call void (ptr, ...) @_ZN5Yosys3logEPKcz(ptr noundef @.str.44)
  call void @llvm.lifetime.start.p0(i64 40, ptr %3) #3
  call void @llvm.memset.p0.i64(ptr align 8 %3, i8 0, i64 40, i1 false)
  call void @_ZN12_GLOBAL__N_19VizConfigC2Ev(ptr noundef nonnull align 8 dereferenceable(40) %3) #3
  %6 = getelementptr inbounds nuw %"struct.(anonymous namespace)::VizConfig", ptr %3, i32 0, i32 0
  %7 = load i32, ptr %6, align 8, !tbaa !21
  invoke void (ptr, ...) @_ZN5Yosys3logEPKcz(ptr noundef @.str.45, i32 noundef %7)
          to label %8 unwind label %9

8:                                                ; preds = %1
  call void @_ZN12_GLOBAL__N_19VizConfigD2Ev(ptr noundef nonnull align 8 dereferenceable(40) %3) #3
  call void @llvm.lifetime.end.p0(i64 40, ptr %3) #3
  call void (ptr, ...) @_ZN5Yosys3logEPKcz(ptr noundef @.str.4)
  call void (ptr, ...) @_ZN5Yosys3logEPKcz(ptr noundef @.str.46)
  call void (ptr, ...) @_ZN5Yosys3logEPKcz(ptr noundef @.str.47)
  call void (ptr, ...) @_ZN5Yosys3logEPKcz(ptr noundef @.str.4)
  call void (ptr, ...) @_ZN5Yosys3logEPKcz(ptr noundef @.str.48)
  call void (ptr, ...) @_ZN5Yosys3logEPKcz(ptr noundef @.str.49)
  call void (ptr, ...) @_ZN5Yosys3logEPKcz(ptr noundef @.str.4)
  call void (ptr, ...) @_ZN5Yosys3logEPKcz(ptr noundef @.str.50)
  call void (ptr, ...) @_ZN5Yosys3logEPKcz(ptr noundef @.str.51)
  call void (ptr, ...) @_ZN5Yosys3logEPKcz(ptr noundef @.str.52)
  call void (ptr, ...) @_ZN5Yosys3logEPKcz(ptr noundef @.str.4)
  ret void

9:                                                ; preds = %1
  %10 = landingpad { ptr, i32 }
          cleanup
  %11 = extractvalue { ptr, i32 } %10, 0
  store ptr %11, ptr %4, align 8
  %12 = extractvalue { ptr, i32 } %10, 1
  store i32 %12, ptr %5, align 4
  call void @_ZN12_GLOBAL__N_19VizConfigD2Ev(ptr noundef nonnull align 8 dereferenceable(40) %3) #3
  call void @llvm.lifetime.end.p0(i64 40, ptr %3) #3
  br label %13

13:                                               ; preds = %9
  %14 = load ptr, ptr %4, align 8
  %15 = load i32, ptr %5, align 4
  %16 = insertvalue { ptr, i32 } poison, ptr %14, 0
  %17 = insertvalue { ptr, i32 } %16, i32 %15, 1
  resume { ptr, i32 } %17
}